target datalayout = "e-m:e-p270:32:32-p271:32:32-p272:64:64-i64:64-i128:128-f80:128-n8:16:32:64-S128"
target triple = "x86_64-pc-linux-gnu"

%struct._object = type { i64, ptr }

@.str = private unnamed_addr constant [11 x i8] c"__dlpack__\00", align 1
@.str.1 = private unnamed_addr constant [13 x i8] c"torch.Tensor\00", align 1
@.str.2 = private unnamed_addr constant [31 x i8] c"jaxlib.xla_extension.ArrayImpl\00", align 1
@.str.3 = private unnamed_addr constant [44 x i8] c"tensorflow.python.framework.ops.EagerTensor\00", align 1
@.str.4 = private unnamed_addr constant [13 x i8] c"cupy.ndarray\00", align 1

; Function Attrs: inlinehint mustprogress uwtable
define internal void @_ZL10_Py_DECREFP7_object(ptr noundef %0) #8 {
  %2 = alloca ptr, align 8
  store ptr %0, ptr %2, align 8
  %3 = load ptr, ptr %2, align 8
  %4 = getelementptr inbounds nuw %struct._object, ptr %3, i32 0, i32 0
  %5 = load i64, ptr %4, align 8
  %6 = add nsw i64 %5, -1
  store i64 %6, ptr %4, align 8
  %7 = icmp ne i64 %6, 0
  br i1 %7, label %8, label %9

8:                                                ; preds = %1
  br label %11

9:                                                ; preds = %1
  %10 = load ptr, ptr %2, align 8
  call void @_Py_Dealloc(ptr noundef %10)
  br label %11

11:                                               ; preds = %9, %8
  ret void
}

; Function Attrs: mustprogress nounwind uwtable
define noundef zeroext i1 @_ZN8nanobind6detail13ndarray_checkEP7_object(ptr noundef %0) #0 personality ptr @__gxx_personality_v0 {
  %2 = alloca i1, align 1
  %3 = alloca ptr, align 8
  %4 = alloca ptr, align 8
  %5 = alloca ptr, align 8
  %6 = alloca ptr, align 8
  %7 = alloca i8, align 1
  store ptr %0, ptr %3, align 8
  %8 = load ptr, ptr %3, align 8
  %9 = invoke i32 @PyObject_HasAttrString(ptr noundef %8, ptr noundef @.str)
          to label %10 unwind label %67

10:                                               ; preds = %1
  %11 = icmp ne i32 %9, 0
  br i1 %11, label %17, label %12

12:                                               ; preds = %10
  %13 = load ptr, ptr %3, align 8
  %14 = invoke i32 @PyObject_CheckBuffer(ptr noundef %13)
          to label %15 unwind label %67

15:                                               ; preds = %12
  %16 = icmp ne i32 %14, 0
  br i1 %16, label %17, label %18

17:                                               ; preds = %15, %10
  store i1 true, ptr %2, align 1
  br label %65

18:                                               ; preds = %15
  call void @llvm.lifetime.start.p0(i64 8, ptr %4) #17
  %19 = load ptr, ptr %3, align 8
  %20 = getelementptr inbounds nuw %struct._object, ptr %19, i32 0, i32 1
  %21 = load ptr, ptr %20, align 8
  store ptr %21, ptr %4, align 8
  call void @llvm.lifetime.start.p0(i64 8, ptr %5) #17
  %22 = load ptr, ptr %4, align 8
  %23 = call noundef ptr @_ZN8nanobind6detail12nb_type_nameEP7_object(ptr noundef %22) #17
  store ptr %23, ptr %5, align 8
  %24 = load ptr, ptr %5, align 8
  %25 = icmp ne ptr %24, null
  %26 = xor i1 %25, true
  %27 = zext i1 %26 to i64
  %28 = call i64 @llvm.expect.i64(i64 %27, i64 0)
  %29 = icmp ne i64 %28, 0
  br i1 %29, label %30, label %31

30:                                               ; preds = %18
  call void @_ZN8nanobind6detail16fail_unspecifiedEv() #18
  unreachable

31:                                               ; preds = %18
  call void @llvm.lifetime.start.p0(i64 8, ptr %6) #17
  %32 = load ptr, ptr %5, align 8
  %33 = invoke ptr @PyUnicode_AsUTF8AndSize(ptr noundef %32, ptr noundef null)
          to label %34 unwind label %67

34:                                               ; preds = %31
  store ptr %33, ptr %6, align 8
  %35 = load ptr, ptr %6, align 8
  %36 = icmp ne ptr %35, null
  %37 = xor i1 %36, true
  %38 = zext i1 %37 to i64
  %39 = call i64 @llvm.expect.i64(i64 %38, i64 0)
  %40 = icmp ne i64 %39, 0
  br i1 %40, label %41, label %42

41:                                               ; preds = %34
  call void @_ZN8nanobind6detail16fail_unspecifiedEv() #18
  unreachable

42:                                               ; preds = %34
  call void @llvm.lifetime.start.p0(i64 1, ptr %7) #17
  %43 = load ptr, ptr %6, align 8
  %44 = call i32 @strcmp(ptr noundef %43, ptr noundef @.str.1) #19
  %45 = icmp eq i32 %44, 0
  br i1 %45, label %58, label %46

46:                                               ; preds = %42
  %47 = load ptr, ptr %6, align 8
  %48 = call i32 @strcmp(ptr noundef %47, ptr noundef @.str.2) #19
  %49 = icmp eq i32 %48, 0
  br i1 %49, label %58, label %50

50:                                               ; preds = %46
  %51 = load ptr, ptr %6, align 8
  %52 = call i32 @strcmp(ptr noundef %51, ptr noundef @.str.3) #19
  %53 = icmp eq i32 %52, 0
  br i1 %53, label %58, label %54

54:                                               ; preds = %50
  %55 = load ptr, ptr %6, align 8
  %56 = call i32 @strcmp(ptr noundef %55, ptr noundef @.str.4) #19
  %57 = icmp eq i32 %56, 0
  br label %58

58:                                               ; preds = %54, %50, %46, %42
  %59 = phi i1 [ true, %50 ], [ true, %46 ], [ true, %42 ], [ %57, %54 ]
  %60 = zext i1 %59 to i8
  store i8 %60, ptr %7, align 1
  %61 = load ptr, ptr %5, align 8
  invoke void @_ZL10_Py_DECREFP7_object(ptr noundef %61)
          to label %62 unwind label %67

62:                                               ; preds = %58
  %63 = load i8, ptr %7, align 1, !range !3, !noundef !4
  %64 = trunc i8 %63 to i1
  store i1 %64, ptr %2, align 1
  call void @llvm.lifetime.end.p0(i64 1, ptr %7) #17
  call void @llvm.lifetime.end.p0(i64 8, ptr %6) #17
  call void @llvm.lifetime.end.p0(i64 8, ptr %5) #17
  call void @llvm.lifetime.end.p0(i64 8, ptr %4) #17
  br label %65

65:                                               ; preds = %62, %17
  %66 = load i1, ptr %2, align 1
  ret i1 %66

67:                                               ; preds = %58, %31, %12, %1
  %68 = landingpad { ptr, i32 }
          catch ptr null
  %69 = extractvalue { ptr, i32 } %68, 0
  call void @__clang_call_terminate(ptr %69) #18
  unreachable
}