; Function Attrs: mustprogress nounwind uwtable
define noundef zeroext i1 @_ZN8nanobind6detail13ndarray_checkEP7_object(ptr noundef %0) local_unnamed_addr #0 personality ptr @__gxx_personality_v0 {
  %2 = invoke i32 @PyObject_HasAttrString(ptr noundef %0, ptr noundef nonnull @.str)
          to label %3 unwind label %33

3:                                                ; preds = %1
  %.not = icmp eq i32 %2, 0
  br i1 %.not, label %4, label %_ZL10_Py_DECREFP7_object.exit

4:                                                ; preds = %3
  %5 = invoke i32 @PyObject_CheckBuffer(ptr noundef %0)
          to label %6 unwind label %33

6:                                                ; preds = %4
  %.not13 = icmp eq i32 %5, 0
  br i1 %.not13, label %7, label %_ZL10_Py_DECREFP7_object.exit

7:                                                ; preds = %6
  %8 = getelementptr inbounds nuw i8, ptr %0, i64 8
  %9 = load ptr, ptr %8, align 8
  %10 = tail call noundef ptr @_ZN8nanobind6detail12nb_type_nameEP7_object(ptr noundef %9) #19
  %.not14 = icmp eq ptr %10, null
  br i1 %.not14, label %11, label %12, !prof !3

11:                                               ; preds = %7
  tail call void @_ZN8nanobind6detail16fail_unspecifiedEv() #20
  unreachable

12:                                               ; preds = %7
  %13 = invoke ptr @PyUnicode_AsUTF8AndSize(ptr noundef nonnull %10, ptr noundef null)
          to label %14 unwind label %33

14:                                               ; preds = %12
  %.not15 = icmp eq ptr %13, null
  br i1 %.not15, label %15, label %16, !prof !3

15:                                               ; preds = %14
  tail call void @_ZN8nanobind6detail16fail_unspecifiedEv() #20
  unreachable

16:                                               ; preds = %14
  %17 = tail call i32 @strcmp(ptr noundef nonnull dereferenceable(1) %13, ptr noundef nonnull dereferenceable(13) @.str.1) #21
  %18 = icmp eq i32 %17, 0
  br i1 %18, label %28, label %19

19:                                               ; preds = %16
  %20 = tail call i32 @strcmp(ptr noundef nonnull dereferenceable(1) %13, ptr noundef nonnull dereferenceable(31) @.str.2) #21
  %21 = icmp eq i32 %20, 0
  br i1 %21, label %28, label %22

22:                                               ; preds = %19
  %23 = tail call i32 @strcmp(ptr noundef nonnull dereferenceable(1) %13, ptr noundef nonnull dereferenceable(44) @.str.3) #21
  %24 = icmp eq i32 %23, 0
  br i1 %24, label %28, label %25

25:                                               ; preds = %22
  %26 = tail call i32 @strcmp(ptr noundef nonnull dereferenceable(1) %13, ptr noundef nonnull dereferenceable(13) @.str.4) #21
  %27 = icmp eq i32 %26, 0
  br label %28

28:                                               ; preds = %25, %22, %19, %16
  %29 = phi i1 [ true, %22 ], [ true, %19 ], [ true, %16 ], [ %27, %25 ]
  %30 = load i64, ptr %10, align 8
  %31 = add nsw i64 %30, -1
  store i64 %31, ptr %10, align 8
  %.not.i = icmp eq i64 %31, 0
  br i1 %.not.i, label %32, label %_ZL10_Py_DECREFP7_object.exit

32:                                               ; preds = %28
  invoke void @_Py_Dealloc(ptr noundef nonnull %10)
          to label %_ZL10_Py_DECREFP7_object.exit unwind label %33

_ZL10_Py_DECREFP7_object.exit:                    ; preds = %28, %32, %3, %6
  %.0 = phi i1 [ true, %6 ], [ true, %3 ], [ %29, %32 ], [ %29, %28 ]
  ret i1 %.0

33:                                               ; preds = %32, %12, %4, %1
  %34 = landingpad { ptr, i32 }
          catch ptr null
  %35 = extractvalue { ptr, i32 } %34, 0
  tail call void @__clang_call_terminate(ptr %35) #20
  unreachable
}